target datalayout = "e-m:e-p270:32:32-p271:32:32-p272:64:64-i64:64-i128:128-f80:128-n8:16:32:64-S128"
target triple = "x86_64-unknown-linux-gnu"

@.str.64 = private unnamed_addr constant [8 x i8] c"<unset>\00", align 1
@.str.65 = private unnamed_addr constant [8 x i8] c"%02x.%x\00", align 1

; Function Attrs: nounwind sspstrong uwtable
define internal i32 @print_pci_devfn(ptr noundef %obj, ptr noundef %prop, ptr noundef %dest, i64 noundef %len) #0 {
entry:
  %retval = alloca i32, align 4
  %obj.addr = alloca ptr, align 8
  %prop.addr = alloca ptr, align 8
  %dest.addr = alloca ptr, align 8
  %len.addr = alloca i64, align 8
  %ptr = alloca ptr, align 8
  store ptr %obj, ptr %obj.addr, align 8
  store ptr %prop, ptr %prop.addr, align 8
  store ptr %dest, ptr %dest.addr, align 8
  store i64 %len, ptr %len.addr, align 8
  %0 = load ptr, ptr %obj.addr, align 8
  %1 = load ptr, ptr %prop.addr, align 8
  %call = call ptr @object_field_prop_ptr(ptr noundef %0, ptr noundef %1)
  store ptr %call, ptr %ptr, align 8
  %2 = load ptr, ptr %ptr, align 8
  %3 = load i32, ptr %2, align 4
  %cmp = icmp eq i32 %3, -1
  br i1 %cmp, label %if.then, label %if.else

if.then:                                          ; preds = %entry
  %4 = load ptr, ptr %dest.addr, align 8
  %5 = load i64, ptr %len.addr, align 8
  %call1 = call i32 (ptr, i64, ptr, ...) @snprintf(ptr noundef %4, i64 noundef %5, ptr noundef @.str.64) #7
  store i32 %call1, ptr %retval, align 4
  br label %return

if.else:                                          ; preds = %entry
  %6 = load ptr, ptr %dest.addr, align 8
  %7 = load i64, ptr %len.addr, align 8
  %8 = load ptr, ptr %ptr, align 8
  %9 = load i32, ptr %8, align 4
  %shr = ashr i32 %9, 3
  %10 = load ptr, ptr %ptr, align 8
  %11 = load i32, ptr %10, align 4
  %and = and i32 %11, 7
  %call2 = call i32 (ptr, i64, ptr, ...) @snprintf(ptr noundef %6, i64 noundef %7, ptr noundef @.str.65, i32 noundef %shr, i32 noundef %and) #7
  store i32 %call2, ptr %retval, align 4
  br label %return

return:                                           ; preds = %if.else, %if.then
  %12 = load i32, ptr %retval, align 4
  ret i32 %12
}