; Function Attrs: nounwind sspstrong uwtable
define internal noundef i32 @print_pci_devfn(ptr noundef %obj, ptr noundef %prop, ptr noundef writeonly captures(none) %dest, i64 noundef %len) #0 {
entry:
  %call = tail call ptr @object_field_prop_ptr(ptr noundef %obj, ptr noundef %prop) #10
  %0 = load i32, ptr %call, align 4
  %cmp = icmp eq i32 %0, -1
  br i1 %cmp, label %if.then, label %if.else

if.then:                                          ; preds = %entry
  %call1 = tail call i32 (ptr, i64, ptr, ...) @snprintf(ptr noundef %dest, i64 noundef %len, ptr noundef nonnull @.str.64) #10
  br label %return

if.else:                                          ; preds = %entry
  %shr = ashr i32 %0, 3
  %and = and i32 %0, 7
  %call2 = tail call i32 (ptr, i64, ptr, ...) @snprintf(ptr noundef %dest, i64 noundef %len, ptr noundef nonnull @.str.65, i32 noundef %shr, i32 noundef %and) #10
  br label %return

return:                                           ; preds = %if.else, %if.then
  %retval.0 = phi i32 [ %call1, %if.then ], [ %call2, %if.else ]
  ret i32 %retval.0
}